; Function Attrs: mustprogress nofree norecurse nosync nounwind willreturn memory(argmem: readwrite) uwtable
define hidden void @PyExpat_XML_GetParsingStatus(ptr noundef readonly %0, ptr noundef writeonly captures(none) %1) local_unnamed_addr #4 {
  %3 = icmp eq ptr %0, null
  br i1 %3, label %7, label %4

4:                                                ; preds = %2
  %5 = getelementptr inbounds nuw i8, ptr %0, i64 920
  %6 = load i64, ptr %5, align 8
  store i64 %6, ptr %1, align 4
  br label %7

7:                                                ; preds = %2, %4
  ret void
}